target datalayout = "e-m:e-p270:32:32-p271:32:32-p272:64:64-i64:64-i128:128-f80:128-n8:16:32:64-S128"
target triple = "x86_64-pc-linux-gnu"

%"class.boost::core::basic_string_view" = type { ptr, i64 }
%"class.boost::urls::detail::query_ref" = type <{ ptr, ptr, i64, i64, i64, i8, [7 x i8] }>

; Function Attrs: mustprogress nounwind uwtable
define linkonce_odr hidden noundef i64 @_ZNK5boost4core17basic_string_viewIcE4sizeEv(ptr noundef nonnull align 8 dereferenceable(16) %0) #1 comdat align 2 {
  %2 = alloca ptr, align 8
  store ptr %0, ptr %2, align 8, !tbaa !3
  %3 = load ptr, ptr %2, align 8
  %4 = getelementptr inbounds nuw %"class.boost::core::basic_string_view", ptr %3, i32 0, i32 1
  %5 = load i64, ptr %4, align 8, !tbaa !20
  ret i64 %5
}

; Function Attrs: mustprogress nounwind uwtable
define linkonce_odr hidden noundef ptr @_ZNK5boost4core17basic_string_viewIcE4dataEv(ptr noundef nonnull align 8 dereferenceable(16) %0) #1 comdat align 2 {
  %2 = alloca ptr, align 8
  store ptr %0, ptr %2, align 8, !tbaa !3
  %3 = load ptr, ptr %2, align 8
  %4 = getelementptr inbounds nuw %"class.boost::core::basic_string_view", ptr %3, i32 0, i32 0
  %5 = load ptr, ptr %4, align 8, !tbaa !37
  ret ptr %5
}

; Function Attrs: mustprogress nounwind uwtable
define void @_ZN5boost4urls6detail9query_refC2ENS_4core17basic_string_viewIcEEmm(ptr noundef nonnull align 8 dereferenceable(41) %0, ptr %1, i64 %2, i64 noundef %3, i64 noundef %4) unnamed_addr #1 align 2 {
  %6 = alloca %"class.boost::core::basic_string_view", align 8
  %7 = alloca ptr, align 8
  %8 = alloca i64, align 8
  %9 = alloca i64, align 8
  %10 = getelementptr inbounds nuw { ptr, i64 }, ptr %6, i32 0, i32 0
  store ptr %1, ptr %10, align 8
  %11 = getelementptr inbounds nuw { ptr, i64 }, ptr %6, i32 0, i32 1
  store i64 %2, ptr %11, align 8
  store ptr %0, ptr %7, align 8, !tbaa !3
  store i64 %3, ptr %8, align 8, !tbaa !8
  store i64 %4, ptr %9, align 8, !tbaa !8
  %12 = load ptr, ptr %7, align 8
  %13 = getelementptr inbounds nuw %"class.boost::urls::detail::query_ref", ptr %12, i32 0, i32 0
  store ptr null, ptr %13, align 8, !tbaa !48
  %14 = getelementptr inbounds nuw %"class.boost::urls::detail::query_ref", ptr %12, i32 0, i32 1
  %15 = call noundef ptr @_ZNK5boost4core17basic_string_viewIcE4dataEv(ptr noundef nonnull align 8 dereferenceable(16) %6) #5
  store ptr %15, ptr %14, align 8, !tbaa !51
  %16 = getelementptr inbounds nuw %"class.boost::urls::detail::query_ref", ptr %12, i32 0, i32 2
  %17 = call noundef i64 @_ZNK5boost4core17basic_string_viewIcE4sizeEv(ptr noundef nonnull align 8 dereferenceable(16) %6) #5
  store i64 %17, ptr %16, align 8, !tbaa !52
  %18 = getelementptr inbounds nuw %"class.boost::urls::detail::query_ref", ptr %12, i32 0, i32 3
  %19 = load i64, ptr %9, align 8, !tbaa !8
  store i64 %19, ptr %18, align 8, !tbaa !53
  %20 = getelementptr inbounds nuw %"class.boost::urls::detail::query_ref", ptr %12, i32 0, i32 4
  %21 = load i64, ptr %8, align 8, !tbaa !8
  store i64 %21, ptr %20, align 8, !tbaa !54
  %22 = getelementptr inbounds nuw %"class.boost::urls::detail::query_ref", ptr %12, i32 0, i32 5
  store i8 0, ptr %22, align 8, !tbaa !55
  ret void
}