; Function Attrs: mustprogress nofree norecurse nosync nounwind willreturn memory(argmem: write) uwtable
define void @_ZN5boost4urls6detail9query_refC2ENS_4core17basic_string_viewIcEEmm(ptr nocapture noundef nonnull writeonly align 8 dereferenceable(41) %0, ptr %1, i64 %2, i64 noundef %3, i64 noundef %4) unnamed_addr #8 align 2 {
  store ptr null, ptr %0, align 8, !tbaa !49
  %6 = getelementptr inbounds nuw i8, ptr %0, i64 8
  store ptr %1, ptr %6, align 8, !tbaa !52
  %7 = getelementptr inbounds nuw i8, ptr %0, i64 16
  store i64 %2, ptr %7, align 8, !tbaa !53
  %8 = getelementptr inbounds nuw i8, ptr %0, i64 24
  store i64 %4, ptr %8, align 8, !tbaa !54
  %9 = getelementptr inbounds nuw i8, ptr %0, i64 32
  store i64 %3, ptr %9, align 8, !tbaa !55
  %10 = getelementptr inbounds nuw i8, ptr %0, i64 40
  store i8 0, ptr %10, align 8, !tbaa !56
  ret void
}